target datalayout = "e-m:e-p270:32:32-p271:32:32-p272:64:64-i64:64-i128:128-f80:128-n8:16:32:64-S128"
target triple = "x86_64-pc-linux-gnu"

%"class.icu_77::Norms" = type { %"class.icu_77::UnicodeSet", %"class.icu_77::UnicodeSet", ptr, ptr, ptr }
%"class.icu_77::UnicodeSet" = type <{ %"class.icu_77::UnicodeFilter", ptr, i32, i32, i8, [7 x i8], ptr, ptr, i32, [4 x i8], ptr, i32, [4 x i8], ptr, ptr, [25 x i32], [4 x i8] }>
%"class.icu_77::UnicodeFilter" = type { %"class.icu_77::UnicodeFunctor", %"class.icu_77::UnicodeMatcher" }
%"class.icu_77::UnicodeFunctor" = type { %"class.icu_77::UObject" }
%"class.icu_77::UObject" = type { ptr }
%"class.icu_77::UnicodeMatcher" = type { ptr }

; Function Attrs: mustprogress uwtable
define dso_local noundef ptr @_ZN6icu_775Norms9allocNormEv(ptr noundef nonnull align 8 dereferenceable(424) %0) #0 align 2 {
  %2 = alloca ptr, align 8
  %3 = alloca ptr, align 8
  store ptr %0, ptr %2, align 8, !tbaa !38
  %4 = load ptr, ptr %2, align 8
  call void @llvm.lifetime.start.p0(i64 8, ptr %3) #11
  %5 = getelementptr inbounds nuw %"class.icu_77::Norms", ptr %4, i32 0, i32 3
  %6 = load ptr, ptr %5, align 8, !tbaa !54
  %7 = call ptr @utm_alloc(ptr noundef %6)
  store ptr %7, ptr %3, align 8, !tbaa !22
  %8 = getelementptr inbounds nuw %"class.icu_77::Norms", ptr %4, i32 0, i32 3
  %9 = load ptr, ptr %8, align 8, !tbaa !54
  %10 = call ptr @utm_getStart(ptr noundef %9)
  %11 = getelementptr inbounds nuw %"class.icu_77::Norms", ptr %4, i32 0, i32 4
  store ptr %10, ptr %11, align 8, !tbaa !55
  %12 = load ptr, ptr %3, align 8, !tbaa !22
  call void @llvm.lifetime.end.p0(i64 8, ptr %3) #11
  ret ptr %12
}