; Function Attrs: mustprogress uwtable
define dso_local noundef ptr @_ZN6icu_775Norms9allocNormEv(ptr noundef nonnull align 8 captures(none) dereferenceable(424) initializes((416, 424)) %0) local_unnamed_addr #2 align 2 {
  %2 = getelementptr inbounds nuw i8, ptr %0, i64 408
  %3 = load ptr, ptr %2, align 8, !tbaa !47
  %4 = tail call ptr @utm_alloc(ptr noundef %3)
  %5 = load ptr, ptr %2, align 8, !tbaa !47
  %6 = tail call ptr @utm_getStart(ptr noundef %5)
  %7 = getelementptr inbounds nuw i8, ptr %0, i64 416
  store ptr %6, ptr %7, align 8, !tbaa !48
  ret ptr %4
}